target datalayout = "e-m:e-p270:32:32-p271:32:32-p272:64:64-i64:64-i128:128-f80:128-n8:16:32:64-S128"
target triple = "x86_64-pc-linux-gnu"

; Function Attrs: mustprogress uwtable
define ptr @u_memrchr_77(ptr noundef %0, i16 noundef zeroext %1, i32 noundef %2) #0 {
  %4 = alloca ptr, align 8
  %5 = alloca ptr, align 8
  %6 = alloca i16, align 2
  %7 = alloca i32, align 4
  %8 = alloca ptr, align 8
  %9 = alloca i32, align 4
  store ptr %0, ptr %5, align 8, !tbaa !3
  store i16 %1, ptr %6, align 2, !tbaa !10
  store i32 %2, ptr %7, align 4, !tbaa !8
  %10 = load i32, ptr %7, align 4, !tbaa !8
  %11 = icmp sle i32 %10, 0
  br i1 %11, label %12, label %13

12:                                               ; preds = %3
  store ptr null, ptr %4, align 8
  br label %44

13:                                               ; preds = %3
  %14 = load i16, ptr %6, align 2, !tbaa !10
  %15 = zext i16 %14 to i32
  %16 = and i32 %15, -2048
  %17 = icmp eq i32 %16, 55296
  br i1 %17, label %18, label %22

18:                                               ; preds = %13
  %19 = load ptr, ptr %5, align 8, !tbaa !3
  %20 = load i32, ptr %7, align 4, !tbaa !8
  %21 = call ptr @u_strFindLast_77(ptr noundef %19, i32 noundef %20, ptr noundef %6, i32 noundef 1)
  store ptr %21, ptr %4, align 8
  br label %44

22:                                               ; preds = %13
  call void @llvm.lifetime.start.p0(i64 8, ptr %8) #7
  %23 = load ptr, ptr %5, align 8, !tbaa !3
  %24 = load i32, ptr %7, align 4, !tbaa !8
  %25 = sext i32 %24 to i64
  %26 = getelementptr inbounds i16, ptr %23, i64 %25
  store ptr %26, ptr %8, align 8, !tbaa !3
  br label %27

27:                                               ; preds = %38, %22
  %28 = load ptr, ptr %8, align 8, !tbaa !3
  %29 = getelementptr inbounds i16, ptr %28, i32 -1
  store ptr %29, ptr %8, align 8, !tbaa !3
  %30 = load i16, ptr %29, align 2, !tbaa !10
  %31 = zext i16 %30 to i32
  %32 = load i16, ptr %6, align 2, !tbaa !10
  %33 = zext i16 %32 to i32
  %34 = icmp eq i32 %31, %33
  br i1 %34, label %35, label %37

35:                                               ; preds = %27
  %36 = load ptr, ptr %8, align 8, !tbaa !3
  store ptr %36, ptr %4, align 8
  store i32 1, ptr %9, align 4
  br label %43

37:                                               ; preds = %27
  br label %38

38:                                               ; preds = %37
  %39 = load ptr, ptr %5, align 8, !tbaa !3
  %40 = load ptr, ptr %8, align 8, !tbaa !3
  %41 = icmp ne ptr %39, %40
  br i1 %41, label %27, label %42, !llvm.loop !27

42:                                               ; preds = %38
  store ptr null, ptr %4, align 8
  store i32 1, ptr %9, align 4
  br label %43

43:                                               ; preds = %42, %35
  call void @llvm.lifetime.end.p0(i64 8, ptr %8) #7
  br label %44

44:                                               ; preds = %43, %18, %12
  %45 = load ptr, ptr %4, align 8
  ret ptr %45
}