; Function Attrs: mustprogress nofree norecurse nosync nounwind willreturn memory(argmem: read) uwtable
define ptr @u_memrchr_77(ptr noundef readonly %0, i16 noundef zeroext %1, i32 noundef %2) local_unnamed_addr #2 {
  %4 = alloca i16, align 2
  store i16 %1, ptr %4, align 2, !tbaa !3
  %5 = icmp slt i32 %2, 1
  br i1 %5, label %.loopexit, label %6

6:                                                ; preds = %3
  %7 = and i16 %1, -2048
  %8 = icmp eq i16 %7, -10240
  br i1 %8, label %9, label %11

9:                                                ; preds = %6
  %10 = call ptr @u_strFindLast_77(ptr noundef %0, i32 noundef %2, ptr noundef nonnull %4, i32 noundef 1)
  br label %.loopexit

11:                                               ; preds = %6
  %12 = zext nneg i32 %2 to i64
  %13 = getelementptr inbounds nuw i16, ptr %0, i64 %12
  br label %14

14:                                               ; preds = %18, %11
  %.0 = phi ptr [ %13, %11 ], [ %15, %18 ]
  %15 = getelementptr inbounds i8, ptr %.0, i64 -2
  %16 = load i16, ptr %15, align 2, !tbaa !3
  %17 = icmp eq i16 %16, %1
  br i1 %17, label %.loopexit, label %18

18:                                               ; preds = %14
  %.not = icmp eq ptr %0, %15
  br i1 %.not, label %.loopexit, label %14, !llvm.loop !20

.loopexit:                                        ; preds = %14, %18, %3, %9
  %.09 = phi ptr [ %10, %9 ], [ null, %3 ], [ null, %18 ], [ %15, %14 ]
  ret ptr %.09
}